target datalayout = "e-m:e-p270:32:32-p271:32:32-p272:64:64-i64:64-i128:128-f80:128-n8:16:32:64-S128"
target triple = "x86_64-pc-linux-gnu"

@.str.1 = private unnamed_addr constant [12 x i8] c"lsyscache.c\00", align 1
@MyDatabaseId = external global i32, align 4
@.str.25 = private unnamed_addr constant [33 x i8] c"subscription \22%s\22 does not exist\00", align 1
@__func__.get_subscription_oid = private unnamed_addr constant [21 x i8] c"get_subscription_oid\00", align 1

; Function Attrs: inlinehint nounwind uwtable
define internal i64 @PointerGetDatum(ptr noundef %0) #2 {
  %2 = alloca ptr, align 8
  store ptr %0, ptr %2, align 8
  %3 = load ptr, ptr %2, align 8
  %4 = ptrtoint ptr %3 to i64
  ret i64 %4
}

; Function Attrs: inlinehint nounwind uwtable
define internal i64 @CStringGetDatum(ptr noundef %0) #2 {
  %2 = alloca ptr, align 8
  store ptr %0, ptr %2, align 8
  %3 = load ptr, ptr %2, align 8
  %4 = call i64 @PointerGetDatum(ptr noundef %3)
  ret i64 %4
}

; Function Attrs: nounwind uwtable
define dso_local i32 @get_subscription_oid(ptr noundef %0, i1 noundef zeroext %1) #0 {
  %3 = alloca ptr, align 8
  %4 = alloca i8, align 1
  %5 = alloca i32, align 4
  store ptr %0, ptr %3, align 8
  %6 = zext i1 %1 to i8
  store i8 %6, ptr %4, align 1
  call void @llvm.lifetime.start.p0(i64 4, ptr %5) #7
  %7 = load i32, ptr @MyDatabaseId, align 4
  %8 = zext i32 %7 to i64
  %9 = load ptr, ptr %3, align 8
  %10 = call i64 @CStringGetDatum(ptr noundef %9)
  %11 = call i32 @GetSysCacheOid(i32 noundef 66, i16 noundef signext 1, i64 noundef %8, i64 noundef %10, i64 noundef 0, i64 noundef 0)
  store i32 %11, ptr %5, align 4
  %12 = load i32, ptr %5, align 4
  %13 = icmp ne i32 %12, 0
  br i1 %13, label %30, label %14

14:                                               ; preds = %2
  %15 = load i8, ptr %4, align 1, !range !4, !noundef !5
  %16 = trunc i8 %15 to i1
  br i1 %16, label %30, label %17

17:                                               ; preds = %14
  br label %18

18:                                               ; preds = %17
  br i1 true, label %19, label %21

19:                                               ; preds = %18
  %20 = call zeroext i1 @errstart_cold(i32 noundef 21, ptr noundef null) #8
  br i1 %20, label %23, label %27

21:                                               ; preds = %18
  %22 = call zeroext i1 @errstart(i32 noundef 21, ptr noundef null)
  br i1 %22, label %23, label %27

23:                                               ; preds = %21, %19
  %24 = call i32 @errcode(i32 noundef 67137668)
  %25 = load ptr, ptr %3, align 8
  %26 = call i32 (ptr, ...) @errmsg(ptr noundef @.str.25, ptr noundef %25)
  call void @errfinish(ptr noundef @.str.1, i32 noundef 3711, ptr noundef @__func__.get_subscription_oid)
  br label %27

27:                                               ; preds = %23, %21, %19
  unreachable

28:                                               ; No predecessors!
  br label %29

29:                                               ; preds = %28
  br label %30

30:                                               ; preds = %29, %14, %2
  %31 = load i32, ptr %5, align 4
  call void @llvm.lifetime.end.p0(i64 4, ptr %5) #7
  ret i32 %31
}