; Function Attrs: nounwind uwtable
define dso_local i32 @get_subscription_oid(ptr noundef %0, i1 noundef zeroext %1) local_unnamed_addr #0 {
  %3 = load i32, ptr @MyDatabaseId, align 4
  %4 = zext i32 %3 to i64
  %5 = ptrtoint ptr %0 to i64
  %6 = tail call i32 @GetSysCacheOid(i32 noundef 66, i16 noundef signext 1, i64 noundef %4, i64 noundef %5, i64 noundef 0, i64 noundef 0) #8
  %.not = icmp ne i32 %6, 0
  %brmerge = or i1 %1, %.not
  br i1 %brmerge, label %11, label %7

7:                                                ; preds = %2
  %8 = tail call zeroext i1 @errstart_cold(i32 noundef 21, ptr noundef null) #9
  tail call void @llvm.assume(i1 %8)
  %9 = tail call i32 @errcode(i32 noundef 67137668) #8
  %10 = tail call i32 (ptr, ...) @errmsg(ptr noundef nonnull @.str.25, ptr noundef %0) #8
  tail call void @errfinish(ptr noundef nonnull @.str.1, i32 noundef 3711, ptr noundef nonnull @__func__.get_subscription_oid) #8
  unreachable

11:                                               ; preds = %2
  ret i32 %6
}